Certificate:
    Data:
        Version: 3 (0x2)
        Serial Number:
            a5:45:95:b9:41:e6:79:7d
        Signature Algorithm: sha1WithRSAEncryption
        Issuer: C=HU, ST=Budapest, O=BalaBit IT Security Ltd, CN=firewall.zorp UnTrusted CA
        Validity
            Not Before: Nov 12 00:00:58 2011 GMT
            Not After : Nov 11 00:00:58 2014 GMT
        Subject: C=HU, ST=Budapest, O=BalaBit IT Security Ltd, CN=firewall.zorp UnTrusted CA
        Subject Public Key Info:
            Public Key Algorithm: rsaEncryption
            RSA Public Key: (1024 bit)
                Modulus (1024 bit):
                    00:b8:b3:8a:24:4c:b9:a9:37:b8:7a:39:08:45:3d:
                    3a:cb:b9:23:27:24:b8:e6:07:73:36:07:dd:58:be:
                    b7:af:aa:55:40:58:dd:65:5a:b2:a4:4e:27:4f:46:
                    47:09:46:fb:5e:af:5c:20:6e:40:96:d4:b5:d7:ba:
                    0c:41:31:08:04:df:99:8f:7b:c5:df:eb:58:cb:7f:
                    03:40:3a:58:57:19:95:bb:2c:07:d7:0c:27:12:24:
                    b2:1f:90:a9:31:1c:ea:87:63:15:74:09:cd:76:e2:
                    ae:b8:1b:c4:47:91:6b:31:da:71:32:4b:79:f2:3e:
                    0b:b0:bb:71:33:e4:62:cb:11
                Exponent: 65537 (0x10001)
        X509v3 extensions:
            X509v3 Subject Key Identifier: 
                D7:83:A8:BF:8F:A0:F7:D0:2B:F4:23:E6:7B:8F:28:60:E5:7B:ED:B7
            X509v3 Authority Key Identifier: 
                keyid:D7:83:A8:BF:8F:A0:F7:D0:2B:F4:23:E6:7B:8F:28:60:E5:7B:ED:B7
                DirName:/C=HU/ST=Budapest/O=BalaBit IT Security Ltd/CN=firewall.zorp UnTrusted CA
                serial:A5:45:95:B9:41:E6:79:7D

            X509v3 Basic Constraints: 
                CA:TRUE
    Signature Algorithm: sha1WithRSAEncryption
        75:f8:64:41:b2:b7:50:32:f0:f6:18:36:b3:9f:ec:3e:79:28:
        a3:91:d3:14:54:63:fc:1e:6a:f9:f9:27:46:5d:d8:20:9e:ef:
        5c:65:b2:2a:16:0a:ea:7b:f2:50:ea:f1:9d:19:b7:a0:c1:32:
        a0:2c:5f:dd:15:47:01:d6:b6:f8:96:6d:8f:f8:f5:59:1f:c4:
        f3:0c:39:36:df:ee:7a:0e:df:67:d7:2a:af:2d:ea:55:58:33:
        13:62:c4:ab:9e:3e:93:21:2c:bc:1e:69:86:19:62:a5:2c:7c:
        2b:62:cf:69:b6:92:6d:e7:d0:9a:7b:51:1f:1f:c8:f0:c9:60:
        cf:a6
-----BEGIN CERTIFICATE-----
MIIDGTCCAoKgAwIBAgIJAKVFlblB5nl9MA0GCSqGSIb3DQEBBQUAMGcxCzAJBgNV
BAYTAkhVMREwDwYDVQQIEwhCdWRhcGVzdDEgMB4GA1UEChMXQmFsYUJpdCBJVCBT
ZWN1cml0eSBMdGQxIzAhBgNVBAMTGmZpcmV3YWxsLnpvcnAgVW5UcnVzdGVkIENB
MB4XDTExMTExMjAwMDA1OFoXDTE0MTExMTAwMDA1OFowZzELMAkGA1UEBhMCSFUx
ETAPBgNVBAgTCEJ1ZGFwZXN0MSAwHgYDVQQKExdCYWxhQml0IElUIFNlY3VyaXR5
IEx0ZDEjMCEGA1UEAxMaZmlyZXdhbGwuem9ycCBVblRydXN0ZWQgQ0EwgZ8wDQYJ
KoZIhvcNAQEBBQADgY0AMIGJAoGBALiziiRMuak3uHo5CEU9Osu5IyckuOYHczYH
3Vi+t6+qVUBY3WVasqROJ09GRwlG+16vXCBuQJbUtde6DEExCATfmY97xd/rWMt/
A0A6WFcZlbssB9cMJxIksh+QqTEc6odjFXQJzXbirrgbxEeRazHacTJLefI+C7C7
cTPkYssRAgMBAAGjgcwwgckwHQYDVR0OBBYEFNeDqL+PoPfQK/Qj5nuPKGDle+23
MIGZBgNVHSMEgZEwgY6AFNeDqL+PoPfQK/Qj5nuPKGDle+23oWukaTBnMQswCQYD
VQQGEwJIVTERMA8GA1UECBMIQnVkYXBlc3QxIDAeBgNVBAoTF0JhbGFCaXQgSVQg
U2VjdXJpdHkgTHRkMSMwIQYDVQQDExpmaXJld2FsbC56b3JwIFVuVHJ1c3RlZCBD
QYIJAKVFlblB5nl9MAwGA1UdEwQFMAMBAf8wDQYJKoZIhvcNAQEFBQADgYEAdfhk
QbK3UDLw9hg2s5/sPnkoo5HTFFRj/B5q+fknRl3YIJ7vXGWyKhYK6nvyUOrxnRm3
oMEyoCxf3RVHAda2+JZtj/j1WR/E8ww5Nt/ueg7fZ9cqry3qVVgzE2LEq54+kyEs
vB5phhlipSx8K2LPabaSbefQmntRHx/I8Mlgz6Y=
-----END CERTIFICATE-----
