Certificate:
    Data:
        Version: 3 (0x2)
        Serial Number:
            86:52:cd:e0:53:2a:72:b8
        Signature Algorithm: sha1WithRSAEncryption
        Issuer: C=HU, ST=Budapest, O=BalaBit IT Security Ltd, CN=firewall.zorp Trusted CA
        Validity
            Not Before: Nov 12 00:04:14 2011 GMT
            Not After : Nov 11 00:04:14 2014 GMT
        Subject: C=HU, ST=Budapest, O=BalaBit IT Security Ltd, CN=firewall.zorp Trusted CA
        Subject Public Key Info:
            Public Key Algorithm: rsaEncryption
            RSA Public Key: (1024 bit)
                Modulus (1024 bit):
                    00:c3:ea:df:12:72:11:3f:bf:b9:2e:3a:d6:ee:e7:
                    dc:58:c3:96:55:a7:3c:a3:c3:01:9d:09:20:de:b6:
                    e5:98:e2:d9:e5:64:8d:4e:63:97:fc:71:a6:0b:b8:
                    fe:e4:f8:57:32:39:62:e4:ff:90:69:67:e7:1d:05:
                    aa:68:75:c0:a8:15:4f:f7:4d:25:63:12:01:3d:e1:
                    93:5c:21:63:c7:84:d6:25:e1:82:44:e1:ac:e9:34:
                    a8:95:75:35:56:27:82:3e:cf:7d:ee:d1:60:da:dc:
                    52:98:f1:a3:93:a7:e1:cc:fa:72:e5:10:ac:86:2a:
                    9f:c2:f4:a1:ba:7c:2f:29:71
                Exponent: 65537 (0x10001)
        X509v3 extensions:
            X509v3 Subject Key Identifier: 
                3E:C6:AD:A1:24:BA:40:18:11:0B:ED:72:DE:89:D1:DE:C3:CE:BE:AA
            X509v3 Authority Key Identifier: 
                keyid:3E:C6:AD:A1:24:BA:40:18:11:0B:ED:72:DE:89:D1:DE:C3:CE:BE:AA
                DirName:/C=HU/ST=Budapest/O=BalaBit IT Security Ltd/CN=firewall.zorp Trusted CA
                serial:86:52:CD:E0:53:2A:72:B8

            X509v3 Basic Constraints: 
                CA:TRUE
    Signature Algorithm: sha1WithRSAEncryption
        7c:71:39:ff:84:33:38:9b:03:32:c5:05:94:f5:f2:cb:dc:0d:
        e0:85:fb:95:c4:3b:65:ae:aa:53:9f:21:a6:ec:87:cf:db:11:
        1a:16:10:58:99:4a:16:c9:71:0f:b6:6d:11:5f:ee:6d:1e:a4:
        08:a1:a3:5d:fa:0e:28:40:82:ff:fb:d6:c1:c0:40:29:40:2c:
        bf:3c:59:44:53:04:2c:dc:a9:17:ca:71:3c:fa:0f:ef:40:49:
        b5:c8:9d:f4:e0:30:4a:fc:c6:e9:98:a6:cf:db:e4:3c:32:e6:
        8b:51:3b:9c:e9:f0:a5:98:42:b1:2b:7f:71:dd:6c:4a:68:3d:
        3d:f7
-----BEGIN CERTIFICATE-----
MIIDEzCCAnygAwIBAgIJAIZSzeBTKnK4MA0GCSqGSIb3DQEBBQUAMGUxCzAJBgNV
BAYTAkhVMREwDwYDVQQIEwhCdWRhcGVzdDEgMB4GA1UEChMXQmFsYUJpdCBJVCBT
ZWN1cml0eSBMdGQxITAfBgNVBAMTGGZpcmV3YWxsLnpvcnAgVHJ1c3RlZCBDQTAe
Fw0xMTExMTIwMDA0MTRaFw0xNDExMTEwMDA0MTRaMGUxCzAJBgNVBAYTAkhVMREw
DwYDVQQIEwhCdWRhcGVzdDEgMB4GA1UEChMXQmFsYUJpdCBJVCBTZWN1cml0eSBM
dGQxITAfBgNVBAMTGGZpcmV3YWxsLnpvcnAgVHJ1c3RlZCBDQTCBnzANBgkqhkiG
9w0BAQEFAAOBjQAwgYkCgYEAw+rfEnIRP7+5LjrW7ufcWMOWVac8o8MBnQkg3rbl
mOLZ5WSNTmOX/HGmC7j+5PhXMjli5P+QaWfnHQWqaHXAqBVP900lYxIBPeGTXCFj
x4TWJeGCROGs6TSolXU1VieCPs997tFg2txSmPGjk6fhzPpy5RCshiqfwvShunwv
KXECAwEAAaOByjCBxzAdBgNVHQ4EFgQUPsatoSS6QBgRC+1y3onR3sPOvqowgZcG
A1UdIwSBjzCBjIAUPsatoSS6QBgRC+1y3onR3sPOvqqhaaRnMGUxCzAJBgNVBAYT
AkhVMREwDwYDVQQIEwhCdWRhcGVzdDEgMB4GA1UEChMXQmFsYUJpdCBJVCBTZWN1
cml0eSBMdGQxITAfBgNVBAMTGGZpcmV3YWxsLnpvcnAgVHJ1c3RlZCBDQYIJAIZS
zeBTKnK4MAwGA1UdEwQFMAMBAf8wDQYJKoZIhvcNAQEFBQADgYEAfHE5/4QzOJsD
MsUFlPXyy9wN4IX7lcQ7Za6qU58hpuyHz9sRGhYQWJlKFslxD7ZtEV/ubR6kCKGj
XfoOKECC//vWwcBAKUAsvzxZRFMELNypF8pxPPoP70BJtcid9OAwSvzG6Zimz9vk
PDLmi1E7nOnwpZhCsSt/cd1sSmg9Pfc=
-----END CERTIFICATE-----
